target datalayout = "e-m:e-p270:32:32-p271:32:32-p272:64:64-i64:64-i128:128-f80:128-n8:16:32:64-S128"
target triple = "x86_64-pc-linux-gnu"

%"class.std::__cxx11::basic_string" = type { %"struct.std::__cxx11::basic_string<char>::_Alloc_hider", i64, %union.anon }
%"struct.std::__cxx11::basic_string<char>::_Alloc_hider" = type { ptr }
%union.anon = type { i64, [8 x i8] }
%"class.std::allocator.0" = type { i8 }

@_ZTIN3nix5ErrorE = linkonce_odr constant { ptr, ptr, ptr } { ptr getelementptr inbounds (ptr, ptr @_ZTVN10__cxxabiv120__si_class_type_infoE, i64 2), ptr @_ZTSN3nix5ErrorE, ptr @_ZTIN3nix9BaseErrorE }, comdat, align 8
@.str = private unnamed_addr constant [31 x i8] c"could not initialise libsodium\00", align 1

; Function Attrs: mustprogress uwtable
define void @_ZN3nix11initLibUtilEv() #5 personality ptr @__gxx_personality_v0 {
  %1 = alloca i8, align 1
  %2 = alloca ptr, align 8
  %3 = alloca i32, align 4
  %4 = alloca ptr, align 8
  %5 = alloca %"class.std::__cxx11::basic_string", align 8
  %6 = alloca %"class.std::allocator.0", align 1
  %7 = alloca i1, align 1
  store i8 0, ptr %1, align 1
  invoke void @_ZN3nix23throwExceptionSelfCheckEv()
          to label %8 unwind label %9

8:                                                ; preds = %0
  br label %20

9:                                                ; preds = %0
  %10 = landingpad { ptr, i32 }
          catch ptr @_ZTIN3nix5ErrorE
  %11 = extractvalue { ptr, i32 } %10, 0
  store ptr %11, ptr %2, align 8
  %12 = extractvalue { ptr, i32 } %10, 1
  store i32 %12, ptr %3, align 4
  br label %13

13:                                               ; preds = %9
  %14 = load i32, ptr %3, align 4
  %15 = call i32 @llvm.eh.typeid.for(ptr @_ZTIN3nix5ErrorE) #1
  %16 = icmp eq i32 %14, %15
  br i1 %16, label %17, label %40

17:                                               ; preds = %13
  %18 = load ptr, ptr %2, align 8
  %19 = call ptr @__cxa_begin_catch(ptr %18) #1
  store ptr %19, ptr %4, align 8
  store i8 1, ptr %1, align 1
  call void @__cxa_end_catch()
  br label %20

20:                                               ; preds = %17, %8
  %21 = call i32 @sodium_init()
  %22 = icmp eq i32 %21, -1
  br i1 %22, label %23, label %39

23:                                               ; preds = %20
  store i1 true, ptr %7, align 1
  %24 = call ptr @__cxa_allocate_exception(i64 376) #1
  call void @_ZNSaIcEC1Ev(ptr noundef nonnull align 1 dereferenceable(1) %6) #1
  invoke void @_ZNSt7__cxx1112basic_stringIcSt11char_traitsIcESaIcEEC2IS3_EEPKcRKS3_(ptr noundef nonnull align 8 dereferenceable(32) %5, ptr noundef @.str, ptr noundef nonnull align 1 dereferenceable(1) %6)
          to label %25 unwind label %27

25:                                               ; preds = %23
  invoke void @_ZN3nix5ErrorCI2NS_9BaseErrorEIJEEERKNSt7__cxx1112basic_stringIcSt11char_traitsIcESaIcEEEDpRKT_(ptr noundef nonnull align 8 dereferenceable(376) %24, ptr noundef nonnull align 8 dereferenceable(32) %5)
          to label %26 unwind label %31

26:                                               ; preds = %25
  store i1 false, ptr %7, align 1
  invoke void @__cxa_throw(ptr %24, ptr @_ZTIN3nix5ErrorE, ptr @_ZN3nix5ErrorD2Ev) #18
          to label %45 unwind label %31

27:                                               ; preds = %23
  %28 = landingpad { ptr, i32 }
          cleanup
  %29 = extractvalue { ptr, i32 } %28, 0
  store ptr %29, ptr %2, align 8
  %30 = extractvalue { ptr, i32 } %28, 1
  store i32 %30, ptr %3, align 4
  br label %35

31:                                               ; preds = %26, %25
  %32 = landingpad { ptr, i32 }
          cleanup
  %33 = extractvalue { ptr, i32 } %32, 0
  store ptr %33, ptr %2, align 8
  %34 = extractvalue { ptr, i32 } %32, 1
  store i32 %34, ptr %3, align 4
  call void @_ZNSt7__cxx1112basic_stringIcSt11char_traitsIcESaIcEED2Ev(ptr noundef nonnull align 8 dereferenceable(32) %5) #1
  br label %35

35:                                               ; preds = %31, %27
  call void @_ZNSaIcED1Ev(ptr noundef nonnull align 1 dereferenceable(1) %6) #1
  %36 = load i1, ptr %7, align 1
  br i1 %36, label %37, label %38

37:                                               ; preds = %35
  call void @__cxa_free_exception(ptr %24) #1
  br label %38

38:                                               ; preds = %37, %35
  br label %40

39:                                               ; preds = %20
  ret void

40:                                               ; preds = %38, %13
  %41 = load ptr, ptr %2, align 8
  %42 = load i32, ptr %3, align 4
  %43 = insertvalue { ptr, i32 } poison, ptr %41, 0
  %44 = insertvalue { ptr, i32 } %43, i32 %42, 1
  resume { ptr, i32 } %44

45:                                               ; preds = %26
  unreachable
}