; Function Attrs: mustprogress uwtable
define void @_ZN3nix11initLibUtilEv() local_unnamed_addr #4 personality ptr @__gxx_personality_v0 {
  %1 = alloca %"class.std::__cxx11::basic_string", align 8
  %2 = alloca %"class.std::allocator.0", align 1
  invoke void @_ZN3nix23throwExceptionSelfCheckEv()
          to label %11 unwind label %3

3:                                                ; preds = %0
  %4 = landingpad { ptr, i32 }
          catch ptr @_ZTIN3nix5ErrorE
  %5 = extractvalue { ptr, i32 } %4, 1
  %6 = tail call i32 @llvm.eh.typeid.for(ptr nonnull @_ZTIN3nix5ErrorE) #25
  %7 = icmp eq i32 %5, %6
  br i1 %7, label %8, label %23

8:                                                ; preds = %3
  %9 = extractvalue { ptr, i32 } %4, 0
  %10 = tail call ptr @__cxa_begin_catch(ptr %9) #25
  tail call void @__cxa_end_catch()
  br label %11

11:                                               ; preds = %0, %8
  %12 = tail call i32 @sodium_init()
  %13 = icmp eq i32 %12, -1
  br i1 %13, label %14, label %22

14:                                               ; preds = %11
  %15 = tail call ptr @__cxa_allocate_exception(i64 376) #25
  call void @_ZNSaIcEC1Ev(ptr noundef nonnull align 1 dereferenceable(1) %2) #25
  invoke void @_ZNSt7__cxx1112basic_stringIcSt11char_traitsIcESaIcEEC2IS3_EEPKcRKS3_(ptr noundef nonnull align 8 dereferenceable(32) %1, ptr noundef nonnull @.str, ptr noundef nonnull align 1 dereferenceable(1) %2)
          to label %16 unwind label %.thread

16:                                               ; preds = %14
  invoke void @_ZN3nix5ErrorCI2NS_9BaseErrorEIJEEERKNSt7__cxx1112basic_stringIcSt11char_traitsIcESaIcEEEDpRKT_(ptr noundef nonnull align 8 dereferenceable(376) %15, ptr noundef nonnull align 8 dereferenceable(32) %1)
          to label %17 unwind label %19

17:                                               ; preds = %16
  invoke void @__cxa_throw(ptr nonnull %15, ptr nonnull @_ZTIN3nix5ErrorE, ptr nonnull @_ZN3nix5ErrorD2Ev) #26
          to label %24 unwind label %19

.thread:                                          ; preds = %14
  %18 = landingpad { ptr, i32 }
          cleanup
  call void @_ZNSaIcED1Ev(ptr noundef nonnull align 1 dereferenceable(1) %2) #25
  br label %21

19:                                               ; preds = %16, %17
  %.0 = phi i1 [ false, %17 ], [ true, %16 ]
  %20 = landingpad { ptr, i32 }
          cleanup
  call void @_ZNSt7__cxx1112basic_stringIcSt11char_traitsIcESaIcEED2Ev(ptr noundef nonnull align 8 dereferenceable(32) %1) #25
  call void @_ZNSaIcED1Ev(ptr noundef nonnull align 1 dereferenceable(1) %2) #25
  br i1 %.0, label %21, label %23

21:                                               ; preds = %.thread, %19
  %.pn12 = phi { ptr, i32 } [ %18, %.thread ], [ %20, %19 ]
  call void @__cxa_free_exception(ptr %15) #25
  br label %23

22:                                               ; preds = %11
  ret void

23:                                               ; preds = %19, %21, %3
  %.merged = phi { ptr, i32 } [ %.pn12, %21 ], [ %20, %19 ], [ %4, %3 ]
  resume { ptr, i32 } %.merged

24:                                               ; preds = %17
  unreachable
}